target datalayout = "e-m:e-p270:32:32-p271:32:32-p272:64:64-i64:64-i128:128-f80:128-n8:16:32:64-S128"
target triple = "x86_64-pc-linux-gnu"

; Function Attrs: mustprogress nounwind uwtable
define hidden noundef zeroext i1 @_ZN13CallGenerator34is_inlined_method_handle_intrinsicEP8ciMethodS1_(ptr noundef %0, ptr noundef %1) #1 align 2 {
  %3 = alloca ptr, align 8
  %4 = alloca ptr, align 8
  store ptr %0, ptr %3, align 8
  store ptr %1, ptr %4, align 8
  %5 = load ptr, ptr %3, align 8
  %6 = call noundef zeroext i1 @_ZNK8ciMethod26is_method_handle_intrinsicEv(ptr noundef nonnull align 8 dereferenceable(160) %5)
  br i1 %6, label %7, label %11

7:                                                ; preds = %2
  %8 = load ptr, ptr %4, align 8
  %9 = call noundef zeroext i1 @_ZNK8ciMethod26is_method_handle_intrinsicEv(ptr noundef nonnull align 8 dereferenceable(160) %8)
  %10 = xor i1 %9, true
  br label %11

11:                                               ; preds = %7, %2
  %12 = phi i1 [ false, %2 ], [ %10, %7 ]
  ret i1 %12
}

; Function Attrs: mustprogress nounwind uwtable
define linkonce_odr hidden noundef ptr @_ZN8ciMethod17get_method_at_bciEi(ptr noundef nonnull align 8 dereferenceable(160) %0, i32 noundef %1) #1 comdat align 2 {
  %3 = alloca ptr, align 8
  %4 = alloca i32, align 4
  %5 = alloca i8, align 1
  %6 = alloca ptr, align 8
  store ptr %0, ptr %3, align 8
  store i32 %1, ptr %4, align 4
  %7 = load ptr, ptr %3, align 8
  %8 = load i32, ptr %4, align 4
  %9 = call noundef ptr @_ZN8ciMethod17get_method_at_bciEiRbPP11ciSignature(ptr noundef nonnull align 8 dereferenceable(160) %7, i32 noundef %8, ptr noundef nonnull align 1 dereferenceable(1) %5, ptr noundef %6)
  ret ptr %9
}

; Function Attrs: mustprogress nounwind uwtable
define hidden noundef zeroext i1 @_ZN13CallGenerator34is_inlined_method_handle_intrinsicEP8ciMethodiS1_(ptr noundef %0, i32 noundef %1, ptr noundef %2) #1 align 2 {
  %4 = alloca ptr, align 8
  %5 = alloca i32, align 4
  %6 = alloca ptr, align 8
  %7 = alloca ptr, align 8
  store ptr %0, ptr %4, align 8
  store i32 %1, ptr %5, align 4
  store ptr %2, ptr %6, align 8
  %8 = load ptr, ptr %4, align 8
  %9 = load i32, ptr %5, align 4
  %10 = call noundef ptr @_ZN8ciMethod17get_method_at_bciEi(ptr noundef nonnull align 8 dereferenceable(160) %8, i32 noundef %9)
  store ptr %10, ptr %7, align 8
  %11 = load ptr, ptr %7, align 8
  %12 = load ptr, ptr %6, align 8
  %13 = call noundef zeroext i1 @_ZN13CallGenerator34is_inlined_method_handle_intrinsicEP8ciMethodS1_(ptr noundef %11, ptr noundef %12)
  ret i1 %13
}