; Function Attrs: mustprogress nounwind uwtable
define hidden noundef zeroext i1 @_ZN13CallGenerator34is_inlined_method_handle_intrinsicEP8ciMethodiS1_(ptr noundef nonnull %0, i32 noundef %1, ptr noundef %2) local_unnamed_addr #0 align 2 {
  %4 = alloca i8, align 1
  %5 = alloca ptr, align 8
  call void @llvm.lifetime.start.p0(i64 1, ptr nonnull %4)
  call void @llvm.lifetime.start.p0(i64 8, ptr nonnull %5)
  %6 = call noundef ptr @_ZN8ciMethod17get_method_at_bciEiRbPP11ciSignature(ptr noundef nonnull align 8 dereferenceable(160) %0, i32 noundef %1, ptr noundef nonnull align 1 dereferenceable(1) %4, ptr noundef nonnull %5) #7
  call void @llvm.lifetime.end.p0(i64 1, ptr nonnull %4)
  call void @llvm.lifetime.end.p0(i64 8, ptr nonnull %5)
  %7 = call noundef zeroext i1 @_ZNK8ciMethod26is_method_handle_intrinsicEv(ptr noundef nonnull align 8 dereferenceable(160) %6) #7
  br i1 %7, label %8, label %_ZN13CallGenerator34is_inlined_method_handle_intrinsicEP8ciMethodS1_.exit

8:                                                ; preds = %3
  %9 = call noundef zeroext i1 @_ZNK8ciMethod26is_method_handle_intrinsicEv(ptr noundef nonnull align 8 dereferenceable(160) %2) #7
  %10 = xor i1 %9, true
  br label %_ZN13CallGenerator34is_inlined_method_handle_intrinsicEP8ciMethodS1_.exit

_ZN13CallGenerator34is_inlined_method_handle_intrinsicEP8ciMethodS1_.exit: ; preds = %3, %8
  %11 = phi i1 [ false, %3 ], [ %10, %8 ]
  ret i1 %11
}